target datalayout = "e-m:e-p270:32:32-p271:32:32-p272:64:64-i64:64-i128:128-f80:128-n8:16:32:64-S128"
target triple = "x86_64-unknown-linux-gnu"

module asm ".section\09\22.initcall6.init\22, \22a\22\09\09"
module asm "__initcall__kmod_nfsv3__729_32_init_nfs_v36:\09\09\09"
module asm ".long\09init_nfs_v3 - .\09"
module asm ".previous\09\09\09\09\09"

%struct.file_system_type = type { ptr, i32, ptr, ptr, ptr, ptr, ptr, ptr, %struct.hlist_head, %struct.lock_class_key, %struct.lock_class_key, %struct.lock_class_key, [3 x %struct.lock_class_key], %struct.lock_class_key, %struct.lock_class_key, %struct.lock_class_key, %struct.lock_class_key }
%struct.hlist_head = type { ptr }
%struct.lock_class_key = type {}
%struct.rpc_version = type { i32, i32, ptr, ptr }
%struct.nfs_rpc_ops = type { i32, ptr, ptr, ptr, ptr, ptr, ptr, ptr, ptr, ptr, ptr, ptr, ptr, ptr, ptr, ptr, ptr, ptr, ptr, ptr, ptr, ptr, ptr, ptr, ptr, ptr, ptr, ptr, ptr, ptr, ptr, ptr, ptr, ptr, ptr, ptr, ptr, ptr, ptr, ptr, ptr, ptr, ptr, ptr, ptr, ptr, ptr, ptr, ptr, ptr, ptr, ptr, ptr, ptr, ptr, ptr }
%struct.super_operations = type { ptr, ptr, ptr, ptr, ptr, ptr, ptr, ptr, ptr, ptr, ptr, ptr, ptr, ptr, ptr, ptr, ptr, ptr, ptr, ptr, ptr, ptr, ptr, ptr, ptr, ptr }
%struct.nfs_subversion = type { ptr, ptr, ptr, ptr, ptr, ptr, %struct.list_head }
%struct.list_head = type { ptr, ptr }

@nfs_fs_type = external dso_local global %struct.file_system_type, align 8
@nfs_version3 = external dso_local constant %struct.rpc_version, align 8
@nfs_v3_clientops = external dso_local constant %struct.nfs_rpc_ops, align 8
@nfs_sops = external dso_local constant %struct.super_operations, align 8
@nfs_v3 = dso_local global %struct.nfs_subversion { ptr null, ptr @nfs_fs_type, ptr @nfs_version3, ptr @nfs_v3_clientops, ptr @nfs_sops, ptr null, %struct.list_head zeroinitializer }, align 8
@__UNIQUE_ID_file727 = internal constant [24 x i8] c"nfsv3.file=fs/nfs/nfsv3\00", section ".modinfo", align 1
@__UNIQUE_ID_license728 = internal constant [18 x i8] c"nfsv3.license=GPL\00", section ".modinfo", align 1
@__UNIQUE_ID___addressable_init_nfs_v3730 = internal global ptr @init_nfs_v3, section ".discard.addressable", align 8
@__exitcall_exit_nfs_v3 = internal global ptr @exit_nfs_v3, section ".exitcall.exit", align 8
@llvm.compiler.used = appending global [5 x ptr] [ptr @__UNIQUE_ID___addressable_init_nfs_v3730, ptr @__UNIQUE_ID_file727, ptr @__UNIQUE_ID_license728, ptr @__exitcall_exit_nfs_v3, ptr @exit_nfs_v3], section "llvm.metadata"

; Function Attrs: cold fn_ret_thunk_extern nounwind null_pointer_is_valid optsize
define internal void @exit_nfs_v3() #0 section ".exit.text" align 16 {
  tail call void @unregister_nfs_version(ptr noundef nonnull @nfs_v3) #2
  ret void
}

; Function Attrs: null_pointer_is_valid
declare dso_local void @unregister_nfs_version(ptr noundef) local_unnamed_addr #1

; Function Attrs: cold fn_ret_thunk_extern nounwind null_pointer_is_valid optsize
define internal noundef i32 @init_nfs_v3() #0 section ".init.text" align 16 {
  tail call void @register_nfs_version(ptr noundef nonnull @nfs_v3) #2
  ret i32 0
}

; Function Attrs: null_pointer_is_valid
declare dso_local void @register_nfs_version(ptr noundef) local_unnamed_addr #1


!llvm.module.flags = !{!0, !1, !2, !3, !4}

!0 = !{i32 1, !"wchar_size", i32 2}
!1 = !{i32 8, !"cf-protection-branch", i32 1}
!2 = !{i32 4, !"function_return_thunk_extern", i32 1}
!3 = !{i32 4, !"indirect_branch_cs_prefix", i32 1}
!4 = !{i32 4, !"SkipRaxSetup", i32 1}
